target datalayout = "e-m:e-p270:32:32-p271:32:32-p272:64:64-i64:64-i128:128-f80:128-n8:16:32:64-S128"
target triple = "x86_64-pc-linux-gnu"

%struct.cl_cvd = type { ptr, i32, i32, i32, ptr, ptr, ptr, i32 }
%struct.stat = type { i64, i64, i64, i32, i32, i32, i32, i64, i64, i64, i64, %struct.timespec, %struct.timespec, %struct.timespec, [3 x i64] }
%struct.timespec = type { i64, i64 }
%struct.dirent = type { i64, i64, i16, i8, [256 x i8] }

@.str.12 = private unnamed_addr constant [3 x i8] c"rb\00", align 1
@.str.18 = private unnamed_addr constant [5 x i8] c".cld\00", align 1
@.str.38 = private unnamed_addr constant [39 x i8] c"cl_cvdgetage: Can't get status of: %s\0A\00", align 1
@.str.39 = private unnamed_addr constant [39 x i8] c"cl_cvdgetage: Can't open directory %s\0A\00", align 1
@.str.40 = private unnamed_addr constant [2 x i8] c"/\00", align 1
@.str.41 = private unnamed_addr constant [40 x i8] c"cl_cvdgetage: path ends with separator\0A\00", align 1
@.str.42 = private unnamed_addr constant [2 x i8] c".\00", align 1
@.str.43 = private unnamed_addr constant [3 x i8] c"..\00", align 1
@.str.44 = private unnamed_addr constant [5 x i8] c".cvd\00", align 1
@.str.45 = private unnamed_addr constant [5 x i8] c"%s%s\00", align 1
@.str.46 = private unnamed_addr constant [6 x i8] c"%s/%s\00", align 1
@.str.47 = private unnamed_addr constant [45 x i8] c"cl_cvdgetage: cvdgetfileage() failed for %s\0A\00", align 1
@.str.122 = private unnamed_addr constant [35 x i8] c"cvdgetfileage: Can't open file %s\0A\00", align 1

; Function Attrs: nounwind uwtable
define internal i32 @cvdgetfileage(ptr noundef %0, ptr noundef %1) #0 {
  %3 = alloca i32, align 4
  %4 = alloca ptr, align 8
  %5 = alloca ptr, align 8
  %6 = alloca %struct.cl_cvd, align 8
  %7 = alloca i64, align 8
  %8 = alloca i32, align 4
  %9 = alloca ptr, align 8
  %10 = alloca i32, align 4
  store ptr %0, ptr %4, align 8, !tbaa !3
  store ptr %1, ptr %5, align 8, !tbaa !80
  call void @llvm.lifetime.start.p0(i64 56, ptr %6) #11
  call void @llvm.lifetime.start.p0(i64 8, ptr %7) #11
  call void @llvm.lifetime.start.p0(i64 4, ptr %8) #11
  store i32 0, ptr %8, align 4, !tbaa !22
  call void @llvm.lifetime.start.p0(i64 8, ptr %9) #11
  store ptr null, ptr %9, align 8, !tbaa !20
  %11 = load ptr, ptr %4, align 8, !tbaa !3
  %12 = call noalias ptr @fopen(ptr noundef %11, ptr noundef @.str.12)
  store ptr %12, ptr %9, align 8, !tbaa !20
  %13 = icmp eq ptr %12, null
  br i1 %13, label %14, label %16

14:                                               ; preds = %2
  %15 = load ptr, ptr %4, align 8, !tbaa !3
  call void (ptr, ...) @cli_errmsg(ptr noundef @.str.122, ptr noundef %15)
  store i32 8, ptr %3, align 4
  store i32 1, ptr %10, align 4
  br label %46

16:                                               ; preds = %2
  %17 = load ptr, ptr %9, align 8, !tbaa !20
  %18 = call i32 @cli_cvdverify(ptr noundef %17, ptr noundef %6, i32 noundef 1)
  store i32 %18, ptr %8, align 4, !tbaa !22
  %19 = icmp ne i32 %18, 0
  br i1 %19, label %20, label %21

20:                                               ; preds = %16
  br label %38

21:                                               ; preds = %16
  %22 = call i64 @time(ptr noundef %7) #11
  %23 = getelementptr inbounds nuw %struct.cl_cvd, ptr %6, i32 0, i32 7
  %24 = load i32, ptr %23, align 8, !tbaa !19
  %25 = zext i32 %24 to i64
  %26 = load i64, ptr %7, align 8, !tbaa !54
  %27 = icmp sgt i64 %25, %26
  br i1 %27, label %28, label %30

28:                                               ; preds = %21
  %29 = load ptr, ptr %5, align 8, !tbaa !80
  store i64 0, ptr %29, align 8, !tbaa !54
  br label %37

30:                                               ; preds = %21
  %31 = load i64, ptr %7, align 8, !tbaa !54
  %32 = getelementptr inbounds nuw %struct.cl_cvd, ptr %6, i32 0, i32 7
  %33 = load i32, ptr %32, align 8, !tbaa !19
  %34 = zext i32 %33 to i64
  %35 = sub nsw i64 %31, %34
  %36 = load ptr, ptr %5, align 8, !tbaa !80
  store i64 %35, ptr %36, align 8, !tbaa !54
  br label %37

37:                                               ; preds = %30, %28
  br label %38

38:                                               ; preds = %37, %20
  %39 = load ptr, ptr %9, align 8, !tbaa !20
  %40 = icmp ne ptr %39, null
  br i1 %40, label %41, label %44

41:                                               ; preds = %38
  %42 = load ptr, ptr %9, align 8, !tbaa !20
  %43 = call i32 @fclose(ptr noundef %42)
  br label %44

44:                                               ; preds = %41, %38
  %45 = load i32, ptr %8, align 4, !tbaa !22
  store i32 %45, ptr %3, align 4
  store i32 1, ptr %10, align 4
  br label %46

46:                                               ; preds = %44, %14
  call void @llvm.lifetime.end.p0(i64 8, ptr %9) #11
  call void @llvm.lifetime.end.p0(i64 4, ptr %8) #11
  call void @llvm.lifetime.end.p0(i64 8, ptr %7) #11
  call void @llvm.lifetime.end.p0(i64 56, ptr %6) #11
  %47 = load i32, ptr %3, align 4
  ret i32 %47
}

; Function Attrs: nounwind uwtable
define i32 @cl_cvdgetage(ptr noundef %0, ptr noundef %1) #0 {
  %3 = alloca i32, align 4
  %4 = alloca ptr, align 8
  %5 = alloca ptr, align 8
  %6 = alloca %struct.stat, align 8
  %7 = alloca ptr, align 8
  %8 = alloca i64, align 8
  %9 = alloca i8, align 1
  %10 = alloca ptr, align 8
  %11 = alloca i8, align 1
  %12 = alloca i32, align 4
  %13 = alloca [1024 x i8], align 16
  %14 = alloca i64, align 8
  %15 = alloca i32, align 4
  store ptr %0, ptr %4, align 8, !tbaa !3
  store ptr %1, ptr %5, align 8, !tbaa !80
  call void @llvm.lifetime.start.p0(i64 144, ptr %6) #11
  call void @llvm.lifetime.start.p0(i64 8, ptr %7) #11
  call void @llvm.lifetime.start.p0(i64 8, ptr %8) #11
  call void @llvm.lifetime.start.p0(i64 1, ptr %9) #11
  store i8 0, ptr %9, align 1, !tbaa !76
  call void @llvm.lifetime.start.p0(i64 8, ptr %10) #11
  store ptr null, ptr %10, align 8, !tbaa !82
  call void @llvm.lifetime.start.p0(i64 1, ptr %11) #11
  store i8 1, ptr %11, align 1, !tbaa !76
  call void @llvm.lifetime.start.p0(i64 4, ptr %12) #11
  store i32 0, ptr %12, align 4, !tbaa !22
  %16 = load ptr, ptr %4, align 8, !tbaa !3
  %17 = call i32 @stat(ptr noundef %16, ptr noundef %6) #11
  %18 = icmp eq i32 %17, -1
  br i1 %18, label %19, label %21

19:                                               ; preds = %2
  %20 = load ptr, ptr %4, align 8, !tbaa !3
  call void (ptr, ...) @cli_errmsg(ptr noundef @.str.38, ptr noundef %20)
  store i32 11, ptr %12, align 4, !tbaa !22
  br label %134

21:                                               ; preds = %2
  %22 = getelementptr inbounds nuw %struct.stat, ptr %6, i32 0, i32 3
  %23 = load i32, ptr %22, align 8, !tbaa !84
  %24 = and i32 %23, 61440
  %25 = icmp eq i32 %24, 16384
  br i1 %25, label %30, label %26

26:                                               ; preds = %21
  %27 = load ptr, ptr %4, align 8, !tbaa !3
  %28 = load ptr, ptr %5, align 8, !tbaa !80
  %29 = call i32 @cvdgetfileage(ptr noundef %27, ptr noundef %28)
  store i32 %29, ptr %12, align 4, !tbaa !22
  br label %134

30:                                               ; preds = %21
  %31 = load ptr, ptr %4, align 8, !tbaa !3
  %32 = call ptr @opendir(ptr noundef %31)
  store ptr %32, ptr %10, align 8, !tbaa !82
  %33 = icmp eq ptr %32, null
  br i1 %33, label %34, label %36

34:                                               ; preds = %30
  %35 = load ptr, ptr %4, align 8, !tbaa !3
  call void (ptr, ...) @cli_errmsg(ptr noundef @.str.39, ptr noundef %35)
  store i32 8, ptr %12, align 4, !tbaa !22
  br label %134

36:                                               ; preds = %30
  %37 = load ptr, ptr %4, align 8, !tbaa !3
  %38 = call i64 @strlen(ptr noundef %37) #12
  store i64 %38, ptr %8, align 8, !tbaa !54
  %39 = load i64, ptr %8, align 8, !tbaa !54
  %40 = icmp uge i64 %39, 1
  br i1 %40, label %41, label %50

41:                                               ; preds = %36
  %42 = load ptr, ptr %4, align 8, !tbaa !3
  %43 = load i64, ptr %8, align 8, !tbaa !54
  %44 = getelementptr inbounds nuw i8, ptr %42, i64 %43
  %45 = getelementptr inbounds i8, ptr %44, i64 -1
  %46 = call i32 @strcmp(ptr noundef %45, ptr noundef @.str.40) #12
  %47 = icmp eq i32 %46, 0
  br i1 %47, label %48, label %49

48:                                               ; preds = %41
  call void (ptr, ...) @cli_dbgmsg(ptr noundef @.str.41)
  store i8 1, ptr %9, align 1, !tbaa !76
  br label %49

49:                                               ; preds = %48, %41
  br label %50

50:                                               ; preds = %49, %36
  br label %51

51:                                               ; preds = %132, %130, %50
  %52 = load ptr, ptr %10, align 8, !tbaa !82
  %53 = call ptr @readdir(ptr noundef %52)
  store ptr %53, ptr %7, align 8, !tbaa !87
  %54 = icmp ne ptr %53, null
  br i1 %54, label %55, label %133

55:                                               ; preds = %51
  call void @llvm.lifetime.start.p0(i64 1024, ptr %13) #11
  call void @llvm.memset.p0.i64(ptr align 16 %13, i8 0, i64 1024, i1 false)
  call void @llvm.lifetime.start.p0(i64 8, ptr %14) #11
  %56 = load ptr, ptr %7, align 8, !tbaa !87
  %57 = getelementptr inbounds nuw %struct.dirent, ptr %56, i32 0, i32 0
  %58 = load i64, ptr %57, align 8, !tbaa !89
  %59 = icmp ne i64 %58, 0
  br i1 %59, label %61, label %60

60:                                               ; preds = %55
  store i32 3, ptr %15, align 4
  br label %130

61:                                               ; preds = %55
  %62 = load ptr, ptr %7, align 8, !tbaa !87
  %63 = getelementptr inbounds nuw %struct.dirent, ptr %62, i32 0, i32 4
  %64 = getelementptr inbounds [256 x i8], ptr %63, i64 0, i64 0
  %65 = call i32 @strcmp(ptr noundef %64, ptr noundef @.str.42) #12
  %66 = icmp ne i32 %65, 0
  br i1 %66, label %67, label %73

67:                                               ; preds = %61
  %68 = load ptr, ptr %7, align 8, !tbaa !87
  %69 = getelementptr inbounds nuw %struct.dirent, ptr %68, i32 0, i32 4
  %70 = getelementptr inbounds [256 x i8], ptr %69, i64 0, i64 0
  %71 = call i32 @strcmp(ptr noundef %70, ptr noundef @.str.43) #12
  %72 = icmp ne i32 %71, 0
  br i1 %72, label %74, label %73

73:                                               ; preds = %67, %61
  store i32 3, ptr %15, align 4
  br label %130

74:                                               ; preds = %67
  %75 = load ptr, ptr %7, align 8, !tbaa !87
  %76 = getelementptr inbounds nuw %struct.dirent, ptr %75, i32 0, i32 4
  %77 = getelementptr inbounds [256 x i8], ptr %76, i64 0, i64 0
  %78 = call i32 @cli_strbcasestr(ptr noundef %77, ptr noundef @.str.44)
  %79 = icmp ne i32 %78, 0
  br i1 %79, label %87, label %80

80:                                               ; preds = %74
  %81 = load ptr, ptr %7, align 8, !tbaa !87
  %82 = getelementptr inbounds nuw %struct.dirent, ptr %81, i32 0, i32 4
  %83 = getelementptr inbounds [256 x i8], ptr %82, i64 0, i64 0
  %84 = call i32 @cli_strbcasestr(ptr noundef %83, ptr noundef @.str.18)
  %85 = icmp ne i32 %84, 0
  br i1 %85, label %87, label %86

86:                                               ; preds = %80
  store i32 3, ptr %15, align 4
  br label %130

87:                                               ; preds = %80, %74
  %88 = load i8, ptr %9, align 1, !tbaa !76, !range !78, !noundef !79
  %89 = trunc i8 %88 to i1
  br i1 %89, label %90, label %97

90:                                               ; preds = %87
  %91 = getelementptr inbounds [1024 x i8], ptr %13, i64 0, i64 0
  %92 = load ptr, ptr %4, align 8, !tbaa !3
  %93 = load ptr, ptr %7, align 8, !tbaa !87
  %94 = getelementptr inbounds nuw %struct.dirent, ptr %93, i32 0, i32 4
  %95 = getelementptr inbounds [256 x i8], ptr %94, i64 0, i64 0
  %96 = call i32 (ptr, i64, ptr, ...) @snprintf(ptr noundef %91, i64 noundef 1023, ptr noundef @.str.45, ptr noundef %92, ptr noundef %95) #11
  br label %104

97:                                               ; preds = %87
  %98 = getelementptr inbounds [1024 x i8], ptr %13, i64 0, i64 0
  %99 = load ptr, ptr %4, align 8, !tbaa !3
  %100 = load ptr, ptr %7, align 8, !tbaa !87
  %101 = getelementptr inbounds nuw %struct.dirent, ptr %100, i32 0, i32 4
  %102 = getelementptr inbounds [256 x i8], ptr %101, i64 0, i64 0
  %103 = call i32 (ptr, i64, ptr, ...) @snprintf(ptr noundef %98, i64 noundef 1023, ptr noundef @.str.46, ptr noundef %99, ptr noundef %102) #11
  br label %104

104:                                              ; preds = %97, %90
  %105 = getelementptr inbounds [1024 x i8], ptr %13, i64 0, i64 0
  %106 = call i32 @cvdgetfileage(ptr noundef %105, ptr noundef %14)
  store i32 %106, ptr %12, align 4, !tbaa !22
  %107 = icmp ne i32 %106, 0
  br i1 %107, label %108, label %110

108:                                              ; preds = %104
  %109 = getelementptr inbounds [1024 x i8], ptr %13, i64 0, i64 0
  call void (ptr, ...) @cli_errmsg(ptr noundef @.str.47, ptr noundef %109)
  store i32 2, ptr %15, align 4
  br label %130

110:                                              ; preds = %104
  %111 = load i8, ptr %11, align 1, !tbaa !76, !range !78, !noundef !79
  %112 = trunc i8 %111 to i1
  br i1 %112, label %113, label %116

113:                                              ; preds = %110
  store i8 0, ptr %11, align 1, !tbaa !76
  %114 = load i64, ptr %14, align 8, !tbaa !54
  %115 = load ptr, ptr %5, align 8, !tbaa !80
  store i64 %114, ptr %115, align 8, !tbaa !54
  br label %129

116:                                              ; preds = %110
  %117 = load i64, ptr %14, align 8, !tbaa !54
  %118 = load ptr, ptr %5, align 8, !tbaa !80
  %119 = load i64, ptr %118, align 8, !tbaa !54
  %120 = icmp slt i64 %117, %119
  br i1 %120, label %121, label %123

121:                                              ; preds = %116
  %122 = load i64, ptr %14, align 8, !tbaa !54
  br label %126

123:                                              ; preds = %116
  %124 = load ptr, ptr %5, align 8, !tbaa !80
  %125 = load i64, ptr %124, align 8, !tbaa !54
  br label %126

126:                                              ; preds = %123, %121
  %127 = phi i64 [ %122, %121 ], [ %125, %123 ]
  %128 = load ptr, ptr %5, align 8, !tbaa !80
  store i64 %127, ptr %128, align 8, !tbaa !54
  br label %129

129:                                              ; preds = %126, %113
  store i32 0, ptr %15, align 4
  br label %130

130:                                              ; preds = %108, %129, %86, %73, %60
  call void @llvm.lifetime.end.p0(i64 8, ptr %14) #11
  call void @llvm.lifetime.end.p0(i64 1024, ptr %13) #11
  %131 = load i32, ptr %15, align 4
  switch i32 %131, label %142 [
    i32 0, label %132
    i32 3, label %51
    i32 2, label %134
  ]

132:                                              ; preds = %130
  br label %51

133:                                              ; preds = %51
  br label %134

134:                                              ; preds = %133, %130, %34, %26, %19
  %135 = load ptr, ptr %10, align 8, !tbaa !82
  %136 = icmp ne ptr %135, null
  br i1 %136, label %137, label %140

137:                                              ; preds = %134
  %138 = load ptr, ptr %10, align 8, !tbaa !82
  %139 = call i32 @closedir(ptr noundef %138)
  br label %140

140:                                              ; preds = %137, %134
  %141 = load i32, ptr %12, align 4, !tbaa !22
  store i32 %141, ptr %3, align 4
  store i32 1, ptr %15, align 4
  br label %142

142:                                              ; preds = %140, %130
  call void @llvm.lifetime.end.p0(i64 4, ptr %12) #11
  call void @llvm.lifetime.end.p0(i64 1, ptr %11) #11
  call void @llvm.lifetime.end.p0(i64 8, ptr %10) #11
  call void @llvm.lifetime.end.p0(i64 1, ptr %9) #11
  call void @llvm.lifetime.end.p0(i64 8, ptr %8) #11
  call void @llvm.lifetime.end.p0(i64 8, ptr %7) #11
  call void @llvm.lifetime.end.p0(i64 144, ptr %6) #11
  %143 = load i32, ptr %3, align 4
  ret i32 %143
}