; Function Attrs: nounwind uwtable
define range(i32 0, 21) i32 @cl_cvdgetage(ptr noundef %0, ptr noundef captures(none) %1) local_unnamed_addr #0 {
  %3 = alloca %struct.cl_cvd, align 8
  %4 = alloca i64, align 8
  %5 = alloca %struct.cl_cvd, align 8
  %6 = alloca i64, align 8
  %7 = alloca %struct.stat, align 8
  %8 = alloca [1024 x i8], align 16
  call void @llvm.lifetime.start.p0(i64 144, ptr nonnull %7) #19
  %9 = call i32 @stat(ptr noundef %0, ptr noundef nonnull %7) #19
  %10 = icmp eq i32 %9, -1
  br i1 %10, label %11, label %12

11:                                               ; preds = %2
  tail call void (ptr, ...) @cli_errmsg(ptr noundef nonnull @.str.38, ptr noundef %0) #19
  br label %.thread75

12:                                               ; preds = %2
  %13 = getelementptr inbounds nuw i8, ptr %7, i64 24
  %14 = load i32, ptr %13, align 8, !tbaa !66
  %15 = and i32 %14, 61440
  %16 = icmp eq i32 %15, 16384
  br i1 %16, label %32, label %17

17:                                               ; preds = %12
  call void @llvm.lifetime.start.p0(i64 56, ptr nonnull %5) #19
  call void @llvm.lifetime.start.p0(i64 8, ptr nonnull %6) #19
  %18 = tail call noalias ptr @fopen(ptr noundef %0, ptr noundef nonnull @.str.12)
  %19 = icmp eq ptr %18, null
  br i1 %19, label %20, label %21

20:                                               ; preds = %17
  tail call void (ptr, ...) @cli_errmsg(ptr noundef nonnull @.str.122, ptr noundef %0) #19
  br label %cvdgetfileage.exit

21:                                               ; preds = %17
  %22 = call fastcc i32 @cli_cvdverify(ptr noundef nonnull %18, ptr noundef nonnull %5, i32 noundef 1)
  %.not.i = icmp eq i32 %22, 0
  br i1 %.not.i, label %.sink.split.i, label %30

.sink.split.i:                                    ; preds = %21
  %23 = call i64 @time(ptr noundef nonnull %6) #19
  %24 = getelementptr inbounds nuw i8, ptr %5, i64 48
  %25 = load i32, ptr %24, align 8, !tbaa !16
  %26 = zext i32 %25 to i64
  %27 = load i64, ptr %6, align 8, !tbaa !44
  %28 = icmp slt i64 %27, %26
  %29 = sub nsw i64 %27, %26
  %.sink.i = select i1 %28, i64 0, i64 %29
  store i64 %.sink.i, ptr %1, align 8, !tbaa !44
  br label %30

30:                                               ; preds = %.sink.split.i, %21
  %31 = call i32 @fclose(ptr noundef nonnull %18)
  br label %cvdgetfileage.exit

cvdgetfileage.exit:                               ; preds = %20, %30
  %.0.i = phi i32 [ 8, %20 ], [ %22, %30 ]
  call void @llvm.lifetime.end.p0(i64 8, ptr nonnull %6) #19
  call void @llvm.lifetime.end.p0(i64 56, ptr nonnull %5) #19
  br label %.thread75

32:                                               ; preds = %12
  %33 = tail call ptr @opendir(ptr noundef %0)
  %34 = icmp eq ptr %33, null
  br i1 %34, label %35, label %36

35:                                               ; preds = %32
  tail call void (ptr, ...) @cli_errmsg(ptr noundef nonnull @.str.39, ptr noundef %0) #19
  br label %.thread75

36:                                               ; preds = %32
  %37 = tail call i64 @strlen(ptr noundef nonnull dereferenceable(1) %0) #18
  %.not = icmp eq i64 %37, 0
  br i1 %.not, label %.tail.thread, label %sub_0

sub_0:                                            ; preds = %36
  %38 = getelementptr inbounds nuw i8, ptr %0, i64 %37
  %39 = getelementptr inbounds i8, ptr %38, i64 -1
  %40 = load i8, ptr %39, align 1
  %.not97 = icmp eq i8 %40, 47
  br i1 %.not97, label %.tail, label %.tail.thread

.tail:                                            ; preds = %sub_0
  %41 = load i8, ptr %38, align 1
  %42 = icmp eq i8 %41, 0
  br i1 %42, label %43, label %.tail.thread

43:                                               ; preds = %.tail
  tail call void (ptr, ...) @cli_dbgmsg(ptr noundef nonnull @.str.41) #19
  br label %.tail.thread

.tail.thread:                                     ; preds = %sub_0, %.tail, %43, %36
  %.035 = phi ptr [ @.str.45, %43 ], [ @.str.46, %.tail ], [ @.str.46, %36 ], [ @.str.46, %sub_0 ]
  %44 = tail call ptr @readdir(ptr noundef nonnull %33) #19
  %.not4595 = icmp eq ptr %44, null
  br i1 %.not4595, label %.thread79, label %.lr.ph

.lr.ph:                                           ; preds = %.tail.thread
  %45 = getelementptr inbounds nuw i8, ptr %3, i64 48
  br label %46

46:                                               ; preds = %.lr.ph, %80
  %47 = phi ptr [ %44, %.lr.ph ], [ %81, %80 ]
  %.03196 = phi i1 [ true, %.lr.ph ], [ %.132, %80 ]
  call void @llvm.lifetime.start.p0(i64 1024, ptr nonnull %8) #19
  call void @llvm.memset.p0.i64(ptr noundef nonnull align 16 dereferenceable(1024) %8, i8 0, i64 1024, i1 false)
  %48 = load i64, ptr %47, align 8, !tbaa !69
  %.not46 = icmp eq i64 %48, 0
  br i1 %.not46, label %80, label %sub_086

sub_086:                                          ; preds = %46
  %49 = getelementptr inbounds nuw i8, ptr %47, i64 19
  %50 = load i8, ptr %49, align 1
  %.not98 = icmp eq i8 %50, 46
  br i1 %.not98, label %.tail85, label %.tail89.thread

.tail85:                                          ; preds = %sub_086
  %51 = getelementptr inbounds nuw i8, ptr %47, i64 20
  %52 = load i8, ptr %51, align 1
  %53 = icmp eq i8 %52, 0
  br i1 %53, label %80, label %sub_191

sub_191:                                          ; preds = %.tail85
  %54 = getelementptr inbounds nuw i8, ptr %47, i64 20
  %55 = load i8, ptr %54, align 1
  %.not100 = icmp eq i8 %55, 46
  br i1 %.not100, label %.tail89, label %.tail89.thread

.tail89:                                          ; preds = %sub_191
  %56 = getelementptr inbounds nuw i8, ptr %47, i64 21
  %57 = load i8, ptr %56, align 1
  %58 = icmp eq i8 %57, 0
  br i1 %58, label %80, label %.tail89.thread

.tail89.thread:                                   ; preds = %sub_086, %sub_191, %.tail89
  %59 = call i32 @cli_strbcasestr(ptr noundef nonnull %49, ptr noundef nonnull @.str.44) #19
  %.not49 = icmp eq i32 %59, 0
  br i1 %.not49, label %60, label %62

60:                                               ; preds = %.tail89.thread
  %61 = call i32 @cli_strbcasestr(ptr noundef nonnull %49, ptr noundef nonnull @.str.18) #19
  %.not50 = icmp eq i32 %61, 0
  br i1 %.not50, label %80, label %62

62:                                               ; preds = %60, %.tail89.thread
  %63 = call i32 (ptr, i64, ptr, ...) @snprintf(ptr noundef nonnull dereferenceable(1) %8, i64 noundef 1023, ptr noundef nonnull %.035, ptr noundef nonnull %0, ptr noundef nonnull %49) #19
  call void @llvm.lifetime.start.p0(i64 56, ptr nonnull %3) #19
  call void @llvm.lifetime.start.p0(i64 8, ptr nonnull %4) #19
  %64 = call noalias ptr @fopen(ptr noundef nonnull %8, ptr noundef nonnull @.str.12)
  %65 = icmp eq ptr %64, null
  br i1 %65, label %cvdgetfileage.exit57.thread, label %66

cvdgetfileage.exit57.thread:                      ; preds = %62
  call void (ptr, ...) @cli_errmsg(ptr noundef nonnull @.str.122, ptr noundef nonnull %8) #19
  br label %82

66:                                               ; preds = %62
  %67 = call fastcc i32 @cli_cvdverify(ptr noundef nonnull %64, ptr noundef nonnull %3, i32 noundef 1)
  %.not.i53 = icmp eq i32 %67, 0
  br i1 %.not.i53, label %69, label %cvdgetfileage.exit57

cvdgetfileage.exit57:                             ; preds = %66
  %68 = call i32 @fclose(ptr noundef nonnull %64)
  br label %82

69:                                               ; preds = %66
  %70 = call i64 @time(ptr noundef nonnull %4) #19
  %71 = load i32, ptr %45, align 8, !tbaa !16
  %72 = zext i32 %71 to i64
  %73 = load i64, ptr %4, align 8, !tbaa !44
  %74 = icmp slt i64 %73, %72
  %75 = sub nsw i64 %73, %72
  %.sink.i56 = select i1 %74, i64 0, i64 %75
  %76 = call i32 @fclose(ptr noundef nonnull %64)
  call void @llvm.lifetime.end.p0(i64 8, ptr nonnull %4) #19
  call void @llvm.lifetime.end.p0(i64 56, ptr nonnull %3) #19
  br i1 %.03196, label %79, label %77

77:                                               ; preds = %69
  %78 = load i64, ptr %1, align 8, !tbaa !44
  %. = call i64 @llvm.smin.i64(i64 %.sink.i56, i64 %78)
  br label %79

79:                                               ; preds = %69, %77
  %storemerge = phi i64 [ %., %77 ], [ %.sink.i56, %69 ]
  store i64 %storemerge, ptr %1, align 8, !tbaa !44
  br label %80

80:                                               ; preds = %60, %.tail85, %.tail89, %46, %79
  %.132 = phi i1 [ false, %79 ], [ %.03196, %46 ], [ %.03196, %.tail89 ], [ %.03196, %.tail85 ], [ %.03196, %60 ]
  call void @llvm.lifetime.end.p0(i64 1024, ptr nonnull %8) #19
  %81 = call ptr @readdir(ptr noundef nonnull %33) #19
  %.not45 = icmp eq ptr %81, null
  br i1 %.not45, label %.thread79, label %46

82:                                               ; preds = %cvdgetfileage.exit57.thread, %cvdgetfileage.exit57
  %.0.i5466 = phi i32 [ 8, %cvdgetfileage.exit57.thread ], [ %67, %cvdgetfileage.exit57 ]
  call void @llvm.lifetime.end.p0(i64 8, ptr nonnull %4) #19
  call void @llvm.lifetime.end.p0(i64 56, ptr nonnull %3) #19
  call void (ptr, ...) @cli_errmsg(ptr noundef nonnull @.str.47, ptr noundef nonnull %8) #19
  call void @llvm.lifetime.end.p0(i64 1024, ptr nonnull %8) #19
  br label %.thread79

.thread79:                                        ; preds = %80, %.tail.thread, %82
  %.03084 = phi i32 [ %.0.i5466, %82 ], [ 0, %.tail.thread ], [ 0, %80 ]
  %83 = call i32 @closedir(ptr noundef nonnull %33)
  br label %.thread75

.thread75:                                        ; preds = %cvdgetfileage.exit, %35, %11, %.thread79
  %.036 = phi i32 [ %.03084, %.thread79 ], [ %.0.i, %cvdgetfileage.exit ], [ 8, %35 ], [ 11, %11 ]
  call void @llvm.lifetime.end.p0(i64 144, ptr nonnull %7) #19
  ret i32 %.036
}